; Function Attrs: mustprogress nounwind uwtable
define noundef zeroext i1 @_ZN5folly13setThreadNameENS_5RangeIPKcEE(ptr %0, ptr %1) local_unnamed_addr #8 {
  %3 = alloca [16 x i8], align 16
  %4 = tail call i64 @pthread_self() #13
  %5 = ptrtoint ptr %1 to i64
  %6 = ptrtoint ptr %0 to i64
  %7 = sub i64 %5, %6
  %.sroa.speculated.i.i = tail call i64 @llvm.umin.i64(i64 %7, i64 15)
  call void @llvm.lifetime.start.p0(i64 16, ptr nonnull %3) #12
  call void @llvm.memset.p0.i64(ptr noundef nonnull align 16 dereferenceable(16) %3, i8 0, i64 16, i1 false)
  call void @llvm.memcpy.p0.p0.i64(ptr nonnull align 16 %3, ptr align 1 %0, i64 %.sroa.speculated.i.i, i1 false)
  %8 = call i32 @pthread_setname_np(i64 noundef %4, ptr noundef nonnull %3) #12
  %9 = icmp eq i32 %8, 0
  call void @llvm.lifetime.end.p0(i64 16, ptr nonnull %3) #12
  ret i1 %9
}